target datalayout = "e-m:e-p270:32:32-p271:32:32-p272:64:64-i64:64-i128:128-f80:128-n8:16:32:64-S128"
target triple = "x86_64-pc-linux-gnu"

%struct.vfd = type { i32, i16, ptr, i32, i32, i32, i64, ptr, i32, i32 }

@data_sync_retry = dso_local global i8 0, align 1
@.str.1 = private unnamed_addr constant [5 x i8] c"fd.c\00", align 1
@.str.5 = private unnamed_addr constant [30 x i8] c"could not close file \22%s\22: %m\00", align 1
@VfdCache = internal global ptr null, align 8
@nfile = internal global i32 0, align 4
@__func__.LruDelete = private unnamed_addr constant [10 x i8] c"LruDelete\00", align 1

; Function Attrs: nounwind uwtable
define internal void @Delete(i32 noundef %0) #0 {
  %2 = alloca i32, align 4
  %3 = alloca ptr, align 8
  store i32 %0, ptr %2, align 4
  call void @llvm.lifetime.start.p0(i64 8, ptr %3) #14
  %4 = load ptr, ptr @VfdCache, align 8
  %5 = load i32, ptr %2, align 4
  %6 = sext i32 %5 to i64
  %7 = getelementptr inbounds %struct.vfd, ptr %4, i64 %6
  store ptr %7, ptr %3, align 8
  %8 = load ptr, ptr %3, align 8
  %9 = getelementptr inbounds nuw %struct.vfd, ptr %8, i32 0, i32 4
  %10 = load i32, ptr %9, align 4
  %11 = load ptr, ptr @VfdCache, align 8
  %12 = load ptr, ptr %3, align 8
  %13 = getelementptr inbounds nuw %struct.vfd, ptr %12, i32 0, i32 5
  %14 = load i32, ptr %13, align 8
  %15 = sext i32 %14 to i64
  %16 = getelementptr inbounds %struct.vfd, ptr %11, i64 %15
  %17 = getelementptr inbounds nuw %struct.vfd, ptr %16, i32 0, i32 4
  store i32 %10, ptr %17, align 4
  %18 = load ptr, ptr %3, align 8
  %19 = getelementptr inbounds nuw %struct.vfd, ptr %18, i32 0, i32 5
  %20 = load i32, ptr %19, align 8
  %21 = load ptr, ptr @VfdCache, align 8
  %22 = load ptr, ptr %3, align 8
  %23 = getelementptr inbounds nuw %struct.vfd, ptr %22, i32 0, i32 4
  %24 = load i32, ptr %23, align 4
  %25 = sext i32 %24 to i64
  %26 = getelementptr inbounds %struct.vfd, ptr %21, i64 %25
  %27 = getelementptr inbounds nuw %struct.vfd, ptr %26, i32 0, i32 5
  store i32 %20, ptr %27, align 8
  call void @llvm.lifetime.end.p0(i64 8, ptr %3) #14
  ret void
}

; Function Attrs: nounwind uwtable
define dso_local i32 @data_sync_elevel(i32 noundef %0) #0 {
  %2 = alloca i32, align 4
  store i32 %0, ptr %2, align 4
  %3 = load i8, ptr @data_sync_retry, align 1, !range !4, !noundef !5
  %4 = trunc i8 %3 to i1
  br i1 %4, label %5, label %7

5:                                                ; preds = %1
  %6 = load i32, ptr %2, align 4
  br label %8

7:                                                ; preds = %1
  br label %8

8:                                                ; preds = %7, %5
  %9 = phi i32 [ %6, %5 ], [ 23, %7 ]
  ret i32 %9
}

; Function Attrs: nounwind uwtable
define internal void @LruDelete(i32 noundef %0) #0 {
  %2 = alloca i32, align 4
  %3 = alloca ptr, align 8
  store i32 %0, ptr %2, align 4
  call void @llvm.lifetime.start.p0(i64 8, ptr %3) #14
  %4 = load ptr, ptr @VfdCache, align 8
  %5 = load i32, ptr %2, align 4
  %6 = sext i32 %5 to i64
  %7 = getelementptr inbounds %struct.vfd, ptr %4, i64 %6
  store ptr %7, ptr %3, align 8
  %8 = load ptr, ptr %3, align 8
  %9 = getelementptr inbounds nuw %struct.vfd, ptr %8, i32 0, i32 0
  %10 = load i32, ptr %9, align 8
  %11 = call i32 @close(i32 noundef %10)
  %12 = icmp ne i32 %11, 0
  br i1 %12, label %13, label %62

13:                                               ; preds = %1
  br label %14

14:                                               ; preds = %13
  br i1 false, label %15, label %41

15:                                               ; preds = %14
  %16 = load ptr, ptr %3, align 8
  %17 = getelementptr inbounds nuw %struct.vfd, ptr %16, i32 0, i32 1
  %18 = load i16, ptr %17, align 4
  %19 = zext i16 %18 to i32
  %20 = and i32 %19, 4
  %21 = icmp ne i32 %20, 0
  br i1 %21, label %22, label %23

22:                                               ; preds = %15
  br label %25

23:                                               ; preds = %15
  %24 = call i32 @data_sync_elevel(i32 noundef 15)
  br label %25

25:                                               ; preds = %23, %22
  %26 = phi i32 [ 15, %22 ], [ %24, %23 ]
  %27 = icmp sge i32 %26, 21
  br i1 %27, label %28, label %41

28:                                               ; preds = %25
  %29 = load ptr, ptr %3, align 8
  %30 = getelementptr inbounds nuw %struct.vfd, ptr %29, i32 0, i32 1
  %31 = load i16, ptr %30, align 4
  %32 = zext i16 %31 to i32
  %33 = and i32 %32, 4
  %34 = icmp ne i32 %33, 0
  br i1 %34, label %35, label %36

35:                                               ; preds = %28
  br label %38

36:                                               ; preds = %28
  %37 = call i32 @data_sync_elevel(i32 noundef 15)
  br label %38

38:                                               ; preds = %36, %35
  %39 = phi i32 [ 15, %35 ], [ %37, %36 ]
  %40 = call zeroext i1 @errstart_cold(i32 noundef %39, ptr noundef null) #16
  br i1 %40, label %54, label %59

41:                                               ; preds = %25, %14
  %42 = load ptr, ptr %3, align 8
  %43 = getelementptr inbounds nuw %struct.vfd, ptr %42, i32 0, i32 1
  %44 = load i16, ptr %43, align 4
  %45 = zext i16 %44 to i32
  %46 = and i32 %45, 4
  %47 = icmp ne i32 %46, 0
  br i1 %47, label %48, label %49

48:                                               ; preds = %41
  br label %51

49:                                               ; preds = %41
  %50 = call i32 @data_sync_elevel(i32 noundef 15)
  br label %51

51:                                               ; preds = %49, %48
  %52 = phi i32 [ 15, %48 ], [ %50, %49 ]
  %53 = call zeroext i1 @errstart(i32 noundef %52, ptr noundef null)
  br i1 %53, label %54, label %59

54:                                               ; preds = %51, %38
  %55 = load ptr, ptr %3, align 8
  %56 = getelementptr inbounds nuw %struct.vfd, ptr %55, i32 0, i32 7
  %57 = load ptr, ptr %56, align 8
  %58 = call i32 (ptr, ...) @errmsg_internal(ptr noundef @.str.5, ptr noundef %57)
  call void @errfinish(ptr noundef @.str.1, i32 noundef 1303, ptr noundef @__func__.LruDelete)
  br label %59

59:                                               ; preds = %54, %51, %38
  br label %60

60:                                               ; preds = %59
  br label %61

61:                                               ; preds = %60
  br label %62

62:                                               ; preds = %61, %1
  %63 = load ptr, ptr %3, align 8
  %64 = getelementptr inbounds nuw %struct.vfd, ptr %63, i32 0, i32 0
  store i32 -1, ptr %64, align 8
  %65 = load i32, ptr @nfile, align 4
  %66 = add i32 %65, -1
  store i32 %66, ptr @nfile, align 4
  %67 = load i32, ptr %2, align 4
  call void @Delete(i32 noundef %67)
  call void @llvm.lifetime.end.p0(i64 8, ptr %3) #14
  ret void
}