; Function Attrs: nounwind uwtable
define internal fastcc void @LruDelete(i32 noundef %0) unnamed_addr #0 {
  %2 = load ptr, ptr @VfdCache, align 8
  %3 = sext i32 %0 to i64
  %4 = getelementptr inbounds %struct.vfd, ptr %2, i64 %3
  %5 = load i32, ptr %4, align 8
  %6 = tail call i32 @close(i32 noundef %5) #25
  %.not = icmp eq i32 %6, 0
  br i1 %.not, label %20, label %7

7:                                                ; preds = %1
  %8 = getelementptr inbounds nuw i8, ptr %4, i64 4
  %9 = load i16, ptr %8, align 4
  %10 = and i16 %9, 4
  %.not5 = icmp eq i16 %10, 0
  %11 = load i8, ptr @data_sync_retry, align 1, !range !4
  %12 = trunc nuw i8 %11 to i1
  %13 = select i1 %12, i32 15, i32 23
  %14 = select i1 %.not5, i32 %13, i32 15
  %15 = tail call zeroext i1 @errstart(i32 noundef %14, ptr noundef null) #25
  br i1 %15, label %16, label %20

16:                                               ; preds = %7
  %17 = getelementptr inbounds nuw i8, ptr %4, i64 40
  %18 = load ptr, ptr %17, align 8
  %19 = tail call i32 (ptr, ...) @errmsg_internal(ptr noundef nonnull @.str.5, ptr noundef %18) #25
  tail call void @errfinish(ptr noundef nonnull @.str.1, i32 noundef 1303, ptr noundef nonnull @__func__.LruDelete) #25
  br label %20

20:                                               ; preds = %7, %16, %1
  store i32 -1, ptr %4, align 8
  %21 = load i32, ptr @nfile, align 4
  %22 = add i32 %21, -1
  store i32 %22, ptr @nfile, align 4
  %23 = load ptr, ptr @VfdCache, align 8
  %24 = getelementptr inbounds %struct.vfd, ptr %23, i64 %3
  %25 = getelementptr inbounds nuw i8, ptr %24, i64 20
  %26 = load i32, ptr %25, align 4
  %27 = getelementptr inbounds nuw i8, ptr %24, i64 24
  %28 = load i32, ptr %27, align 8
  %29 = sext i32 %28 to i64
  %30 = getelementptr inbounds %struct.vfd, ptr %23, i64 %29, i32 4
  store i32 %26, ptr %30, align 4
  %31 = sext i32 %26 to i64
  %32 = getelementptr inbounds %struct.vfd, ptr %23, i64 %31, i32 5
  store i32 %28, ptr %32, align 8
  ret void
}